; Function Attrs: mustprogress nounwind uwtable
define void @_ZN3gmx23ExpandedEnsembleElementD2Ev(ptr noundef nonnull align 8 dereferenceable(144) %0) unnamed_addr #1 align 2 personality ptr @__gxx_personality_v0 {
  %2 = getelementptr inbounds i8, ptr %0, i64 72
  tail call void @_ZNSt7__cxx1112basic_stringIcSt11char_traitsIcESaIcEED1Ev(ptr noundef nonnull align 8 dereferenceable(32) %2) #25
  %3 = getelementptr inbounds i8, ptr %0, i64 64
  %4 = load ptr, ptr %3, align 8
  %.not.i = icmp eq ptr %4, null
  br i1 %.not.i, label %_ZNSt10unique_ptrI12df_history_tSt14default_deleteIS0_EED2Ev.exit, label %_ZNKSt14default_deleteI12df_history_tEclEPS0_.exit.i

_ZNKSt14default_deleteI12df_history_tEclEPS0_.exit.i: ; preds = %1
  tail call void @_ZdlPv(ptr noundef nonnull %4) #26
  br label %_ZNSt10unique_ptrI12df_history_tSt14default_deleteIS0_EED2Ev.exit

_ZNSt10unique_ptrI12df_history_tSt14default_deleteIS0_EED2Ev.exit: ; preds = %1, %_ZNKSt14default_deleteI12df_history_tEclEPS0_.exit.i
  store ptr null, ptr %3, align 8
  ret void
}